; Function Attrs: mustprogress uwtable
define void @_ZN8QuantLib36ContinuousPartialFixedLookbackOptionC1ENS_4DateERKN5boost10shared_ptrINS_17StrikedTypePayoffEEERKNS3_INS_8ExerciseEEE(ptr noundef nonnull align 8 dereferenceable(240) %this, i64 %lookbackPeriodStart.coerce, ptr nocapture noundef nonnull readonly align 8 dereferenceable(16) %payoff, ptr noundef nonnull align 8 dereferenceable(16) %exercise) unnamed_addr #9 align 2 personality ptr @__gxx_personality_v0 {
entry:
  %0 = getelementptr inbounds i8, ptr %this, i64 240
  store ptr getelementptr inbounds inrange(-16, 16) (i8, ptr @_ZTVN8QuantLib10ObservableE, i64 16), ptr %0, align 8, !tbaa !33
  %1 = getelementptr inbounds i8, ptr %this, i64 256
  store i32 0, ptr %1, align 8, !tbaa !8
  %_M_parent.i.i.i.i.i.i = getelementptr inbounds i8, ptr %this, i64 264
  store ptr null, ptr %_M_parent.i.i.i.i.i.i, align 8, !tbaa !13
  %_M_left.i.i.i.i.i.i = getelementptr inbounds i8, ptr %this, i64 272
  store ptr %1, ptr %_M_left.i.i.i.i.i.i, align 8, !tbaa !14
  %_M_right.i.i.i.i.i.i = getelementptr inbounds i8, ptr %this, i64 280
  store ptr %1, ptr %_M_right.i.i.i.i.i.i, align 8, !tbaa !15
  %_M_node_count.i.i.i.i.i.i = getelementptr inbounds i8, ptr %this, i64 288
  store i64 0, ptr %_M_node_count.i.i.i.i.i.i, align 8, !tbaa !16
  %2 = getelementptr inbounds i8, ptr %this, i64 296
  store ptr getelementptr inbounds inrange(-16, 32) (i8, ptr @_ZTVN8QuantLib8ObserverE, i64 16), ptr %2, align 8, !tbaa !33
  %3 = getelementptr inbounds i8, ptr %this, i64 312
  store i32 0, ptr %3, align 8, !tbaa !8
  %_M_parent.i.i.i.i.i.i1 = getelementptr inbounds i8, ptr %this, i64 320
  store ptr null, ptr %_M_parent.i.i.i.i.i.i1, align 8, !tbaa !13
  %_M_left.i.i.i.i.i.i2 = getelementptr inbounds i8, ptr %this, i64 328
  store ptr %3, ptr %_M_left.i.i.i.i.i.i2, align 8, !tbaa !14
  %_M_right.i.i.i.i.i.i3 = getelementptr inbounds i8, ptr %this, i64 336
  store ptr %3, ptr %_M_right.i.i.i.i.i.i3, align 8, !tbaa !15
  %_M_node_count.i.i.i.i.i.i4 = getelementptr inbounds i8, ptr %this, i64 344
  store i64 0, ptr %_M_node_count.i.i.i.i.i.i4, align 8, !tbaa !16
  invoke void @_ZN8QuantLib29ContinuousFixedLookbackOptionC2EdRKN5boost10shared_ptrINS_17StrikedTypePayoffEEERKNS2_INS_8ExerciseEEE(ptr noundef nonnull align 8 dereferenceable(232) %this, ptr noundef nonnull getelementptr inbounds (i8, ptr @_ZTTN8QuantLib36ContinuousPartialFixedLookbackOptionE, i64 8), double noundef 0.000000e+00, ptr noundef nonnull align 8 dereferenceable(16) %payoff, ptr noundef nonnull align 8 dereferenceable(16) %exercise)
          to label %invoke.cont unwind label %lpad

invoke.cont:                                      ; preds = %entry
  store ptr getelementptr inbounds inrange(-32, 72) (i8, ptr @_ZTVN8QuantLib36ContinuousPartialFixedLookbackOptionE, i64 32), ptr %this, align 8, !tbaa !33
  store ptr getelementptr inbounds inrange(-24, 16) (i8, ptr @_ZTVN8QuantLib36ContinuousPartialFixedLookbackOptionE, i64 128), ptr %0, align 8, !tbaa !33
  store ptr getelementptr inbounds inrange(-40, 32) (i8, ptr @_ZTVN8QuantLib36ContinuousPartialFixedLookbackOptionE, i64 184), ptr %2, align 8, !tbaa !33
  %lookbackPeriodStart_ = getelementptr inbounds nuw i8, ptr %this, i64 232
  store i64 %lookbackPeriodStart.coerce, ptr %lookbackPeriodStart_, align 8, !tbaa !47
  ret void

lpad:                                             ; preds = %entry
  %4 = landingpad { ptr, i32 }
          cleanup
  tail call void @_ZN8QuantLib8ObserverD2Ev(ptr noundef nonnull align 8 dereferenceable(56) %2) #26
  tail call void @_ZN8QuantLib10ObservableD2Ev(ptr noundef nonnull align 8 dereferenceable(56) %0) #26
  resume { ptr, i32 } %4
}